; Function Attrs: mustprogress uwtable
define void @_ZN9grpc_core8internal45alts_handshaker_client_set_vtable_for_testingEP22alts_handshaker_clientP29alts_handshaker_client_vtable(ptr noundef writeonly %c, ptr noundef %vtable) local_unnamed_addr #3 {
entry:
  %cmp.not = icmp eq ptr %c, null
  br i1 %cmp.not, label %if.then, label %do.body1

if.then:                                          ; preds = %entry
  tail call void @gpr_assertion_failed(ptr noundef nonnull @.str, i32 noundef 830, ptr noundef nonnull @.str.1) #17
  unreachable

do.body1:                                         ; preds = %entry
  %cmp2.not = icmp eq ptr %vtable, null
  br i1 %cmp2.not, label %if.then4, label %do.end6

if.then4:                                         ; preds = %do.body1
  tail call void @gpr_assertion_failed(ptr noundef nonnull @.str, i32 noundef 831, ptr noundef nonnull @.str.21) #17
  unreachable

do.end6:                                          ; preds = %do.body1
  store ptr %vtable, ptr %c, align 8
  ret void
}